target datalayout = "e-m:e-p270:32:32-p271:32:32-p272:64:64-i64:64-i128:128-f80:128-n8:16:32:64-S128"
target triple = "x86_64-pc-linux-gnu"

%"struct.icu_77::CollationData" = type <{ ptr, ptr, ptr, ptr, ptr, ptr, ptr, i32, i32, i32, i32, ptr, ptr, ptr, i32, i32, ptr, ptr, i32, [4 x i8], ptr, i32, [4 x i8] }>

; Function Attrs: mustprogress nounwind uwtable
define noundef i32 @_ZNK6icu_7713CollationData14getScriptIndexEi(ptr noundef nonnull align 8 dereferenceable(140) %0, i32 noundef %1) #3 align 2 {
  %3 = alloca i32, align 4
  %4 = alloca ptr, align 8
  %5 = alloca i32, align 4
  store ptr %0, ptr %4, align 8, !tbaa !3
  store i32 %1, ptr %5, align 4, !tbaa !8
  %6 = load ptr, ptr %4, align 8
  %7 = load i32, ptr %5, align 4, !tbaa !8
  %8 = icmp slt i32 %7, 0
  br i1 %8, label %9, label %10

9:                                                ; preds = %2
  store i32 0, ptr %3, align 4
  br label %44

10:                                               ; preds = %2
  %11 = load i32, ptr %5, align 4, !tbaa !8
  %12 = getelementptr inbounds nuw %"struct.icu_77::CollationData", ptr %6, i32 0, i32 15
  %13 = load i32, ptr %12, align 4, !tbaa !39
  %14 = icmp slt i32 %11, %13
  br i1 %14, label %15, label %23

15:                                               ; preds = %10
  %16 = getelementptr inbounds nuw %"struct.icu_77::CollationData", ptr %6, i32 0, i32 16
  %17 = load ptr, ptr %16, align 8, !tbaa !40
  %18 = load i32, ptr %5, align 4, !tbaa !8
  %19 = sext i32 %18 to i64
  %20 = getelementptr inbounds i16, ptr %17, i64 %19
  %21 = load i16, ptr %20, align 2, !tbaa !35
  %22 = zext i16 %21 to i32
  store i32 %22, ptr %3, align 4
  br label %44

23:                                               ; preds = %10
  %24 = load i32, ptr %5, align 4, !tbaa !8
  %25 = icmp slt i32 %24, 4096
  br i1 %25, label %26, label %27

26:                                               ; preds = %23
  store i32 0, ptr %3, align 4
  br label %44

27:                                               ; preds = %23
  %28 = load i32, ptr %5, align 4, !tbaa !8
  %29 = sub nsw i32 %28, 4096
  store i32 %29, ptr %5, align 4, !tbaa !8
  %30 = load i32, ptr %5, align 4, !tbaa !8
  %31 = icmp slt i32 %30, 8
  br i1 %31, label %32, label %43

32:                                               ; preds = %27
  %33 = getelementptr inbounds nuw %"struct.icu_77::CollationData", ptr %6, i32 0, i32 16
  %34 = load ptr, ptr %33, align 8, !tbaa !40
  %35 = getelementptr inbounds nuw %"struct.icu_77::CollationData", ptr %6, i32 0, i32 15
  %36 = load i32, ptr %35, align 4, !tbaa !39
  %37 = load i32, ptr %5, align 4, !tbaa !8
  %38 = add nsw i32 %36, %37
  %39 = sext i32 %38 to i64
  %40 = getelementptr inbounds i16, ptr %34, i64 %39
  %41 = load i16, ptr %40, align 2, !tbaa !35
  %42 = zext i16 %41 to i32
  store i32 %42, ptr %3, align 4
  br label %44

43:                                               ; preds = %27
  store i32 0, ptr %3, align 4
  br label %44

44:                                               ; preds = %43, %32, %26, %15, %9
  %45 = load i32, ptr %3, align 4
  ret i32 %45
}

; Function Attrs: inlinehint mustprogress nounwind uwtable
define internal noundef signext i8 @_ZL9U_FAILURE10UErrorCode(i32 noundef %0) #2 {
  %2 = alloca i32, align 4
  store i32 %0, ptr %2, align 4, !tbaa !21
  %3 = load i32, ptr %2, align 4, !tbaa !21
  %4 = icmp sgt i32 %3, 0
  %5 = zext i1 %4 to i8
  ret i8 %5
}

; Function Attrs: mustprogress uwtable
define noundef i32 @_ZNK6icu_7713CollationData20getEquivalentScriptsEiPiiR10UErrorCode(ptr noundef nonnull align 8 dereferenceable(140) %0, i32 noundef %1, ptr noundef %2, i32 noundef %3, ptr noundef nonnull align 4 dereferenceable(4) %4) #0 align 2 {
  %6 = alloca i32, align 4
  %7 = alloca ptr, align 8
  %8 = alloca i32, align 4
  %9 = alloca ptr, align 8
  %10 = alloca i32, align 4
  %11 = alloca ptr, align 8
  %12 = alloca i32, align 4
  %13 = alloca i32, align 4
  %14 = alloca i32, align 4
  %15 = alloca i32, align 4
  store ptr %0, ptr %7, align 8, !tbaa !3
  store i32 %1, ptr %8, align 4, !tbaa !8
  store ptr %2, ptr %9, align 8, !tbaa !45
  store i32 %3, ptr %10, align 4, !tbaa !8
  store ptr %4, ptr %11, align 8, !tbaa !20
  %16 = load ptr, ptr %7, align 8
  %17 = load ptr, ptr %11, align 8, !tbaa !20
  %18 = load i32, ptr %17, align 4, !tbaa !21
  %19 = call noundef signext i8 @_ZL9U_FAILURE10UErrorCode(i32 noundef %18)
  %20 = icmp ne i8 %19, 0
  br i1 %20, label %21, label %22

21:                                               ; preds = %5
  store i32 0, ptr %6, align 4
  br label %84

22:                                               ; preds = %5
  call void @llvm.lifetime.start.p0(i64 4, ptr %12) #7
  %23 = load i32, ptr %8, align 4, !tbaa !8
  %24 = call noundef i32 @_ZNK6icu_7713CollationData14getScriptIndexEi(ptr noundef nonnull align 8 dereferenceable(140) %16, i32 noundef %23)
  store i32 %24, ptr %12, align 4, !tbaa !8
  %25 = load i32, ptr %12, align 4, !tbaa !8
  %26 = icmp eq i32 %25, 0
  br i1 %26, label %27, label %28

27:                                               ; preds = %22
  store i32 0, ptr %6, align 4
  store i32 1, ptr %13, align 4
  br label %83

28:                                               ; preds = %22
  %29 = load i32, ptr %8, align 4, !tbaa !8
  %30 = icmp sge i32 %29, 4096
  br i1 %30, label %31, label %41

31:                                               ; preds = %28
  %32 = load i32, ptr %10, align 4, !tbaa !8
  %33 = icmp sgt i32 %32, 0
  br i1 %33, label %34, label %38

34:                                               ; preds = %31
  %35 = load i32, ptr %8, align 4, !tbaa !8
  %36 = load ptr, ptr %9, align 8, !tbaa !45
  %37 = getelementptr inbounds i32, ptr %36, i64 0
  store i32 %35, ptr %37, align 4, !tbaa !8
  br label %40

38:                                               ; preds = %31
  %39 = load ptr, ptr %11, align 8, !tbaa !20
  store i32 15, ptr %39, align 4, !tbaa !21
  br label %40

40:                                               ; preds = %38, %34
  store i32 1, ptr %6, align 4
  store i32 1, ptr %13, align 4
  br label %83

41:                                               ; preds = %28
  call void @llvm.lifetime.start.p0(i64 4, ptr %14) #7
  store i32 0, ptr %14, align 4, !tbaa !8
  call void @llvm.lifetime.start.p0(i64 4, ptr %15) #7
  store i32 0, ptr %15, align 4, !tbaa !8
  br label %42

42:                                               ; preds = %72, %41
  %43 = load i32, ptr %15, align 4, !tbaa !8
  %44 = getelementptr inbounds nuw %"struct.icu_77::CollationData", ptr %16, i32 0, i32 15
  %45 = load i32, ptr %44, align 4, !tbaa !39
  %46 = icmp slt i32 %43, %45
  br i1 %46, label %48, label %47

47:                                               ; preds = %42
  store i32 2, ptr %13, align 4
  call void @llvm.lifetime.end.p0(i64 4, ptr %15) #7
  br label %75

48:                                               ; preds = %42
  %49 = getelementptr inbounds nuw %"struct.icu_77::CollationData", ptr %16, i32 0, i32 16
  %50 = load ptr, ptr %49, align 8, !tbaa !40
  %51 = load i32, ptr %15, align 4, !tbaa !8
  %52 = sext i32 %51 to i64
  %53 = getelementptr inbounds i16, ptr %50, i64 %52
  %54 = load i16, ptr %53, align 2, !tbaa !35
  %55 = zext i16 %54 to i32
  %56 = load i32, ptr %12, align 4, !tbaa !8
  %57 = icmp eq i32 %55, %56
  br i1 %57, label %58, label %71

58:                                               ; preds = %48
  %59 = load i32, ptr %14, align 4, !tbaa !8
  %60 = load i32, ptr %10, align 4, !tbaa !8
  %61 = icmp slt i32 %59, %60
  br i1 %61, label %62, label %68

62:                                               ; preds = %58
  %63 = load i32, ptr %15, align 4, !tbaa !8
  %64 = load ptr, ptr %9, align 8, !tbaa !45
  %65 = load i32, ptr %14, align 4, !tbaa !8
  %66 = sext i32 %65 to i64
  %67 = getelementptr inbounds i32, ptr %64, i64 %66
  store i32 %63, ptr %67, align 4, !tbaa !8
  br label %68

68:                                               ; preds = %62, %58
  %69 = load i32, ptr %14, align 4, !tbaa !8
  %70 = add nsw i32 %69, 1
  store i32 %70, ptr %14, align 4, !tbaa !8
  br label %71

71:                                               ; preds = %68, %48
  br label %72

72:                                               ; preds = %71
  %73 = load i32, ptr %15, align 4, !tbaa !8
  %74 = add nsw i32 %73, 1
  store i32 %74, ptr %15, align 4, !tbaa !8
  br label %42, !llvm.loop !46

75:                                               ; preds = %47
  %76 = load i32, ptr %14, align 4, !tbaa !8
  %77 = load i32, ptr %10, align 4, !tbaa !8
  %78 = icmp sgt i32 %76, %77
  br i1 %78, label %79, label %81

79:                                               ; preds = %75
  %80 = load ptr, ptr %11, align 8, !tbaa !20
  store i32 15, ptr %80, align 4, !tbaa !21
  br label %81

81:                                               ; preds = %79, %75
  %82 = load i32, ptr %14, align 4, !tbaa !8
  store i32 %82, ptr %6, align 4
  store i32 1, ptr %13, align 4
  call void @llvm.lifetime.end.p0(i64 4, ptr %14) #7
  br label %83

83:                                               ; preds = %81, %40, %27
  call void @llvm.lifetime.end.p0(i64 4, ptr %12) #7
  br label %84

84:                                               ; preds = %83, %21
  %85 = load i32, ptr %6, align 4
  ret i32 %85
}