; Function Attrs: mustprogress nofree norecurse nosync nounwind memory(read, argmem: readwrite, inaccessiblemem: none) uwtable
define noundef i32 @_ZNK6icu_7713CollationData20getEquivalentScriptsEiPiiR10UErrorCode(ptr noundef nonnull readonly align 8 captures(none) dereferenceable(140) %0, i32 noundef %1, ptr noundef writeonly captures(none) %2, i32 noundef %3, ptr noundef nonnull align 4 captures(none) dereferenceable(4) %4) local_unnamed_addr #3 align 2 {
  %6 = load i32, ptr %4, align 4, !tbaa !19
  %7 = icmp sgt i32 %6, 0
  %8 = icmp slt i32 %1, 0
  %or.cond = or i1 %8, %7
  br i1 %or.cond, label %_ZNK6icu_7713CollationData14getScriptIndexEi.exit.thread, label %9

9:                                                ; preds = %5
  %10 = getelementptr inbounds nuw i8, ptr %0, i64 100
  %11 = load i32, ptr %10, align 4, !tbaa !36
  %12 = icmp slt i32 %1, %11
  br i1 %12, label %13, label %18

13:                                               ; preds = %9
  %14 = getelementptr inbounds nuw i8, ptr %0, i64 104
  %15 = load ptr, ptr %14, align 8, !tbaa !37
  %16 = zext nneg i32 %1 to i64
  %17 = getelementptr inbounds nuw i16, ptr %15, i64 %16
  br label %_ZNK6icu_7713CollationData14getScriptIndexEi.exit

18:                                               ; preds = %9
  %19 = and i32 %1, 2147483640
  %or.cond.i = icmp eq i32 %19, 4096
  br i1 %or.cond.i, label %20, label %_ZNK6icu_7713CollationData14getScriptIndexEi.exit.thread

20:                                               ; preds = %18
  %21 = add nsw i32 %1, -4096
  %22 = getelementptr inbounds nuw i8, ptr %0, i64 104
  %23 = load ptr, ptr %22, align 8, !tbaa !37
  %24 = add nsw i32 %21, %11
  %25 = sext i32 %24 to i64
  %26 = getelementptr inbounds i16, ptr %23, i64 %25
  br label %_ZNK6icu_7713CollationData14getScriptIndexEi.exit

_ZNK6icu_7713CollationData14getScriptIndexEi.exit: ; preds = %13, %20
  %27 = phi ptr [ %15, %13 ], [ %23, %20 ]
  %.0.shrunk.i.in = phi ptr [ %17, %13 ], [ %26, %20 ]
  %.0.shrunk.i = load i16, ptr %.0.shrunk.i.in, align 2, !tbaa !29
  %28 = icmp eq i16 %.0.shrunk.i, 0
  br i1 %28, label %_ZNK6icu_7713CollationData14getScriptIndexEi.exit.thread, label %29

29:                                               ; preds = %_ZNK6icu_7713CollationData14getScriptIndexEi.exit
  %30 = icmp samesign ugt i32 %1, 4095
  br i1 %30, label %32, label %.preheader

.preheader:                                       ; preds = %29
  %31 = icmp sgt i32 %11, 0
  br i1 %31, label %.lr.ph, label %._crit_edge

32:                                               ; preds = %29
  %33 = icmp sgt i32 %3, 0
  br i1 %33, label %34, label %35

34:                                               ; preds = %32
  store i32 %1, ptr %2, align 4, !tbaa !18
  br label %_ZNK6icu_7713CollationData14getScriptIndexEi.exit.thread

35:                                               ; preds = %32
  store i32 15, ptr %4, align 4, !tbaa !19
  br label %_ZNK6icu_7713CollationData14getScriptIndexEi.exit.thread

._crit_edge:                                      ; preds = %49, %.preheader
  %.023.lcssa = phi i32 [ 0, %.preheader ], [ %.1, %49 ]
  %36 = icmp sgt i32 %.023.lcssa, %3
  br i1 %36, label %53, label %_ZNK6icu_7713CollationData14getScriptIndexEi.exit.thread

.lr.ph:                                           ; preds = %.preheader, %49
  %.pre34 = phi i32 [ %.pre35, %49 ], [ %11, %.preheader ]
  %37 = phi i32 [ %50, %49 ], [ %11, %.preheader ]
  %indvars.iv = phi i64 [ %indvars.iv.next, %49 ], [ 0, %.preheader ]
  %.02330 = phi i32 [ %.1, %49 ], [ 0, %.preheader ]
  %38 = getelementptr inbounds nuw i16, ptr %27, i64 %indvars.iv
  %39 = load i16, ptr %38, align 2, !tbaa !29
  %40 = icmp eq i16 %.0.shrunk.i, %39
  br i1 %40, label %41, label %49

41:                                               ; preds = %.lr.ph
  %42 = icmp slt i32 %.02330, %3
  br i1 %42, label %43, label %47

43:                                               ; preds = %41
  %44 = sext i32 %.02330 to i64
  %45 = getelementptr inbounds i32, ptr %2, i64 %44
  %46 = trunc nuw nsw i64 %indvars.iv to i32
  store i32 %46, ptr %45, align 4, !tbaa !18
  %.pre.pre = load i32, ptr %10, align 4, !tbaa !36
  br label %47

47:                                               ; preds = %43, %41
  %.pre = phi i32 [ %.pre.pre, %43 ], [ %.pre34, %41 ]
  %48 = add nsw i32 %.02330, 1
  br label %49

49:                                               ; preds = %.lr.ph, %47
  %.pre35 = phi i32 [ %.pre, %47 ], [ %.pre34, %.lr.ph ]
  %50 = phi i32 [ %.pre, %47 ], [ %37, %.lr.ph ]
  %.1 = phi i32 [ %48, %47 ], [ %.02330, %.lr.ph ]
  %indvars.iv.next = add nuw nsw i64 %indvars.iv, 1
  %51 = sext i32 %50 to i64
  %52 = icmp slt i64 %indvars.iv.next, %51
  br i1 %52, label %.lr.ph, label %._crit_edge, !llvm.loop !43

53:                                               ; preds = %._crit_edge
  store i32 15, ptr %4, align 4, !tbaa !19
  br label %_ZNK6icu_7713CollationData14getScriptIndexEi.exit.thread

_ZNK6icu_7713CollationData14getScriptIndexEi.exit.thread: ; preds = %18, %_ZNK6icu_7713CollationData14getScriptIndexEi.exit, %35, %34, %53, %._crit_edge, %5
  %.024 = phi i32 [ 0, %5 ], [ 0, %_ZNK6icu_7713CollationData14getScriptIndexEi.exit ], [ 1, %35 ], [ 1, %34 ], [ %.023.lcssa, %53 ], [ %.023.lcssa, %._crit_edge ], [ 0, %18 ]
  ret i32 %.024
}